target datalayout = "e-m:e-p270:32:32-p271:32:32-p272:64:64-i64:64-i128:128-f80:128-n8:16:32:64-S128"
target triple = "x86_64-pc-linux-gnu"

%struct.rb_ractor_struct = type { %struct.rb_ractor_pub, %struct.rb_ractor_sync, i64, %union.pthread_cond_t, %struct.anon.17, i64, i64, i64, i32, %struct.ccan_list_node, ptr, ptr, i64, i64, i64, i64, i64, i64, ptr }
%struct.rb_ractor_pub = type { i64, i32, %struct.rb_hook_list_struct }
%struct.rb_hook_list_struct = type { ptr, i32, i32, i8, i8 }
%struct.rb_ractor_sync = type { %union.pthread_mutex_t, i8, i8, %struct.rb_ractor_queue, %struct.rb_ractor_queue, %struct.rb_ractor_basket, %struct.ractor_wait }
%union.pthread_mutex_t = type { %struct.__pthread_mutex_s }
%struct.__pthread_mutex_s = type { i32, i32, i32, i32, i32, i16, i16, %struct.__pthread_internal_list }
%struct.__pthread_internal_list = type { ptr, ptr }
%struct.rb_ractor_queue = type { ptr, i32, i32, i32, i32, i32 }
%struct.rb_ractor_basket = type { %union.anon.13, i64, %union.anon.14 }
%union.anon.13 = type { i32 }
%union.anon.14 = type { %struct.anon.15 }
%struct.anon.15 = type { i64, i8 }
%struct.ractor_wait = type { i32, i32, ptr }
%union.pthread_cond_t = type { %struct.__pthread_cond_s }
%struct.__pthread_cond_s = type { %union.__atomic_wide_counter, %union.__atomic_wide_counter, [2 x i32], [2 x i32], i32, i32, [2 x i32] }
%union.__atomic_wide_counter = type { i64 }
%struct.anon.17 = type { %struct.ccan_list_head, i32, i32, i32, %struct.rb_thread_sched, ptr, ptr }
%struct.ccan_list_head = type { %struct.ccan_list_node }
%struct.rb_thread_sched = type { %union.pthread_mutex_t, ptr, i8, i8, i8, %struct.ccan_list_head, i32, %struct.ccan_list_node }
%struct.ccan_list_node = type { ptr, ptr }
%struct.receive_block_data = type { ptr, ptr, i64, i32, i8 }

@.str = private unnamed_addr constant [12 x i8] c"../ractor.c\00", align 1

; Function Attrs: nounwind sspstrong uwtable
define internal void @ASSERT_ractor_unlocking(ptr noundef %0) #0 {
  %2 = alloca ptr, align 8
  store ptr %0, ptr %2, align 8, !tbaa !7
  ret void
}

; Function Attrs: nounwind sspstrong uwtable
define internal void @ractor_unlock(ptr noundef %0, ptr noundef %1, i32 noundef %2) #0 {
  %4 = alloca ptr, align 8
  %5 = alloca ptr, align 8
  %6 = alloca i32, align 4
  store ptr %0, ptr %4, align 8, !tbaa !7
  store ptr %1, ptr %5, align 8, !tbaa !12
  store i32 %2, ptr %6, align 4, !tbaa !14
  %7 = load ptr, ptr %4, align 8, !tbaa !7
  call void @ASSERT_ractor_locking(ptr noundef %7)
  %8 = load ptr, ptr %4, align 8, !tbaa !7
  %9 = getelementptr inbounds nuw %struct.rb_ractor_struct, ptr %8, i32 0, i32 1
  %10 = getelementptr inbounds nuw %struct.rb_ractor_sync, ptr %9, i32 0, i32 0
  call void @rb_native_mutex_unlock(ptr noundef %10)
  ret void
}

; Function Attrs: nounwind sspstrong uwtable
define internal void @ASSERT_ractor_locking(ptr noundef %0) #0 {
  %2 = alloca ptr, align 8
  store ptr %0, ptr %2, align 8, !tbaa !7
  ret void
}

; Function Attrs: nounwind sspstrong uwtable
define internal void @ractor_lock(ptr noundef %0, ptr noundef %1, i32 noundef %2) #0 {
  %4 = alloca ptr, align 8
  %5 = alloca ptr, align 8
  %6 = alloca i32, align 4
  store ptr %0, ptr %4, align 8, !tbaa !7
  store ptr %1, ptr %5, align 8, !tbaa !12
  store i32 %2, ptr %6, align 4, !tbaa !14
  %7 = load ptr, ptr %4, align 8, !tbaa !7
  call void @ASSERT_ractor_unlocking(ptr noundef %7)
  %8 = load ptr, ptr %4, align 8, !tbaa !7
  %9 = getelementptr inbounds nuw %struct.rb_ractor_struct, ptr %8, i32 0, i32 1
  %10 = getelementptr inbounds nuw %struct.rb_ractor_sync, ptr %9, i32 0, i32 0
  call void @rb_native_mutex_lock(ptr noundef %10)
  ret void
}

; Function Attrs: nounwind sspstrong uwtable
define internal void @ractor_unlock_self(ptr noundef %0, ptr noundef %1, i32 noundef %2) #0 {
  %4 = alloca ptr, align 8
  %5 = alloca ptr, align 8
  %6 = alloca i32, align 4
  store ptr %0, ptr %4, align 8, !tbaa !7
  store ptr %1, ptr %5, align 8, !tbaa !12
  store i32 %2, ptr %6, align 4, !tbaa !14
  %7 = load ptr, ptr %4, align 8, !tbaa !7
  %8 = load ptr, ptr %5, align 8, !tbaa !12
  %9 = load i32, ptr %6, align 4, !tbaa !14
  call void @ractor_unlock(ptr noundef %7, ptr noundef %8, i32 noundef %9)
  ret void
}

; Function Attrs: nounwind sspstrong uwtable
define internal ptr @ractor_queue_at(ptr noundef %0, ptr noundef %1, i32 noundef %2) #0 {
  %4 = alloca ptr, align 8
  %5 = alloca ptr, align 8
  %6 = alloca i32, align 4
  store ptr %0, ptr %4, align 8, !tbaa !7
  store ptr %1, ptr %5, align 8, !tbaa !93
  store i32 %2, ptr %6, align 4, !tbaa !14
  %7 = load ptr, ptr %4, align 8, !tbaa !7
  %8 = icmp ne ptr %7, null
  br i1 %8, label %9, label %11

9:                                                ; preds = %3
  %10 = load ptr, ptr %4, align 8, !tbaa !7
  call void @ASSERT_ractor_locking(ptr noundef %10)
  br label %11

11:                                               ; preds = %9, %3
  %12 = load ptr, ptr %5, align 8, !tbaa !93
  %13 = getelementptr inbounds nuw %struct.rb_ractor_queue, ptr %12, i32 0, i32 0
  %14 = load ptr, ptr %13, align 8, !tbaa !219
  %15 = load ptr, ptr %5, align 8, !tbaa !93
  %16 = getelementptr inbounds nuw %struct.rb_ractor_queue, ptr %15, i32 0, i32 1
  %17 = load i32, ptr %16, align 8, !tbaa !220
  %18 = load i32, ptr %6, align 4, !tbaa !14
  %19 = add i32 %17, %18
  %20 = load ptr, ptr %5, align 8, !tbaa !93
  %21 = getelementptr inbounds nuw %struct.rb_ractor_queue, ptr %20, i32 0, i32 3
  %22 = load i32, ptr %21, align 8, !tbaa !221
  %23 = srem i32 %19, %22
  %24 = sext i32 %23 to i64
  %25 = getelementptr %struct.rb_ractor_basket, ptr %14, i64 %24
  ret ptr %25
}

; Function Attrs: nounwind sspstrong uwtable
define internal void @ractor_lock_self(ptr noundef %0, ptr noundef %1, i32 noundef %2) #0 {
  %4 = alloca ptr, align 8
  %5 = alloca ptr, align 8
  %6 = alloca i32, align 4
  store ptr %0, ptr %4, align 8, !tbaa !7
  store ptr %1, ptr %5, align 8, !tbaa !12
  store i32 %2, ptr %6, align 4, !tbaa !14
  %7 = load ptr, ptr %4, align 8, !tbaa !7
  %8 = load ptr, ptr %5, align 8, !tbaa !12
  %9 = load i32, ptr %6, align 4, !tbaa !14
  call void @ractor_lock(ptr noundef %7, ptr noundef %8, i32 noundef %9)
  ret void
}

; Function Attrs: nounwind sspstrong uwtable
define internal i64 @receive_if_ensure(i64 noundef %0) #0 {
  %2 = alloca i64, align 8
  %3 = alloca ptr, align 8
  %4 = alloca ptr, align 8
  %5 = alloca ptr, align 8
  store i64 %0, ptr %2, align 8, !tbaa !16
  call void @llvm.lifetime.start.p0(i64 8, ptr %3) #16
  %6 = load i64, ptr %2, align 8, !tbaa !16
  %7 = inttoptr i64 %6 to ptr
  store ptr %7, ptr %3, align 8, !tbaa !330
  call void @llvm.lifetime.start.p0(i64 8, ptr %4) #16
  %8 = load ptr, ptr %3, align 8, !tbaa !330
  %9 = getelementptr inbounds nuw %struct.receive_block_data, ptr %8, i32 0, i32 0
  %10 = load ptr, ptr %9, align 8, !tbaa !195
  store ptr %10, ptr %4, align 8, !tbaa !7
  %11 = load ptr, ptr %3, align 8, !tbaa !330
  %12 = getelementptr inbounds nuw %struct.receive_block_data, ptr %11, i32 0, i32 4
  %13 = load i8, ptr %12, align 4, !tbaa !200, !range !91, !noundef !92
  %14 = trunc i8 %13 to i1
  br i1 %14, label %34, label %15

15:                                               ; preds = %1
  %16 = load ptr, ptr %4, align 8, !tbaa !7
  call void @ractor_lock_self(ptr noundef %16, ptr noundef @.str, i32 noundef 849)
  call void @llvm.lifetime.start.p0(i64 8, ptr %5) #16
  %17 = load ptr, ptr %4, align 8, !tbaa !7
  %18 = load ptr, ptr %3, align 8, !tbaa !330
  %19 = getelementptr inbounds nuw %struct.receive_block_data, ptr %18, i32 0, i32 1
  %20 = load ptr, ptr %19, align 8, !tbaa !197
  %21 = load ptr, ptr %3, align 8, !tbaa !330
  %22 = getelementptr inbounds nuw %struct.receive_block_data, ptr %21, i32 0, i32 3
  %23 = load i32, ptr %22, align 8, !tbaa !199
  %24 = call ptr @ractor_queue_at(ptr noundef %17, ptr noundef %20, i32 noundef %23)
  store ptr %24, ptr %5, align 8, !tbaa !105
  %25 = load ptr, ptr %5, align 8, !tbaa !105
  %26 = getelementptr inbounds nuw %struct.rb_ractor_basket, ptr %25, i32 0, i32 0
  store i32 5, ptr %26, align 8, !tbaa !104
  %27 = load ptr, ptr %3, align 8, !tbaa !330
  %28 = getelementptr inbounds nuw %struct.receive_block_data, ptr %27, i32 0, i32 1
  %29 = load ptr, ptr %28, align 8, !tbaa !197
  %30 = getelementptr inbounds nuw %struct.rb_ractor_queue, ptr %29, i32 0, i32 5
  %31 = load i32, ptr %30, align 8, !tbaa !193
  %32 = add i32 %31, -1
  store i32 %32, ptr %30, align 8, !tbaa !193
  call void @llvm.lifetime.end.p0(i64 8, ptr %5) #16
  %33 = load ptr, ptr %4, align 8, !tbaa !7
  call void @ractor_unlock_self(ptr noundef %33, ptr noundef @.str, i32 noundef 856)
  br label %34

34:                                               ; preds = %15, %1
  %35 = load ptr, ptr %4, align 8, !tbaa !7
  %36 = getelementptr inbounds nuw %struct.rb_ractor_struct, ptr %35, i32 0, i32 2
  %37 = load i64, ptr %36, align 8, !tbaa !213
  %38 = call i64 @rb_mutex_unlock(i64 noundef %37)
  call void @llvm.lifetime.end.p0(i64 8, ptr %4) #16
  call void @llvm.lifetime.end.p0(i64 8, ptr %3) #16
  ret i64 4
}