; Function Attrs: nounwind sspstrong uwtable
define internal noundef i64 @receive_if_ensure(i64 noundef %0) #0 {
  %2 = inttoptr i64 %0 to ptr
  %3 = load ptr, ptr %2, align 8, !tbaa !207
  %4 = getelementptr inbounds nuw i8, ptr %2, i64 28
  %5 = load i8, ptr %4, align 4, !tbaa !287, !range !98, !noundef !99
  %6 = trunc nuw i8 %5 to i1
  br i1 %6, label %26, label %7

7:                                                ; preds = %1
  %8 = getelementptr inbounds nuw i8, ptr %3, i64 40
  tail call void @rb_native_mutex_lock(ptr noundef nonnull %8) #19
  %9 = getelementptr inbounds nuw i8, ptr %2, i64 8
  %10 = load ptr, ptr %9, align 8, !tbaa !210
  %11 = getelementptr inbounds nuw i8, ptr %2, i64 24
  %12 = load i32, ptr %11, align 8, !tbaa !212
  %13 = load ptr, ptr %10, align 8, !tbaa !88
  %14 = getelementptr inbounds nuw i8, ptr %10, i64 8
  %15 = load i32, ptr %14, align 8, !tbaa !87
  %16 = add i32 %15, %12
  %17 = getelementptr inbounds nuw i8, ptr %10, i64 16
  %18 = load i32, ptr %17, align 8, !tbaa !85
  %19 = srem i32 %16, %18
  %20 = sext i32 %19 to i64
  %21 = getelementptr %struct.rb_ractor_basket, ptr %13, i64 %20
  store i32 5, ptr %21, align 8, !tbaa !100
  %22 = load ptr, ptr %9, align 8, !tbaa !210
  %23 = getelementptr inbounds nuw i8, ptr %22, i64 24
  %24 = load i32, ptr %23, align 8, !tbaa !108
  %25 = add i32 %24, -1
  store i32 %25, ptr %23, align 8, !tbaa !108
  tail call void @rb_native_mutex_unlock(ptr noundef nonnull %8) #19
  br label %26

26:                                               ; preds = %7, %1
  %27 = getelementptr inbounds nuw i8, ptr %3, i64 200
  %28 = load i64, ptr %27, align 8, !tbaa !116
  %29 = tail call i64 @rb_mutex_unlock(i64 noundef %28) #19
  ret i64 4
}